(dp0
Vsg_bundle_data
p1
(dp2
Vtype
p3
VCustomNonProjectEntity02
p4
sVid
p5
I235
sVsg_system_name
p6
Vtk-multi-devutils
p7
sVsg_status_list
p8
Vhidden
p9
sVsg_deprecation_message
p10
NssVsg_version_data
p11
(dp12
Vtype
p13
VCustomNonProjectEntity05
p14
sVid
p15
I6997
sVcode
p16
Vv1.3.1
p17
sVsg_status_list
p18
Vprod
p19
sVdescription
p20
VSix.py str types removed, new build_resources.yml configuration.
p21
sVtags
p22
(lp23
sVsg_detailed_release_notes
p24
(dp25
Vurl
p26
Vhttps://community.shotgridsoftware.com/t/a-new-version-of-tk-multi-devutils-has-been-released/14136/4
p27
sVname
p28
Vv1.3.1
p29
sVcontent_type
p30
NsVlink_type
p31
Vweb
p32
sg13
VAttachment
p33
sg15
I33698
ssVsg_documentation
p34
NsVsg_payload
p35
(dp36
g26
Vhttps://s3-proxy.shotgunstudio.com/d18c13bf0e59a9a82f18be518a1b6b508bcbd774/ad501d32657cb451c946d5440e4b9d7e7d2a43a1/tk-multi-devutils_v1.3.1.zip?response-content-disposition=filename%3D%22tk-multi-devutils_v1.3.1.zip%22&x-amz-meta-user-id=42&x-amz-meta-user-type=ApiUser&X-Amz-Algorithm=AWS4-HMAC-SHA256&X-Amz-Credential=ASIAYJG6Z4JI5SO4TCLG%2F20250410%2Fus-west-2%2Fs3%2Faws4_request&X-Amz-Date=20250410T080904Z&X-Amz-SignedHeaders=host&X-Amz-Expires=900&X-Amz-Security-Token=IQoJb3JpZ2luX2VjECgaCXVzLWVhc3QtMSJHMEUCIQDpAumz0b%2F9179Ldq6W314Hlx83GfNYj1V8t3oz8hH6%2BgIgH21nUKCeJf8nVed9it2W1rKXnfrh%2BXaVezoyJHJ4Q3UqoQIIof%2F%2F%2F%2F%2F%2F%2F%2F%2F%2FARAAGgw1Njk1NTA0MzA4MDEiDN8jQSIgC1B2HAiIrir1AUalyYYHS6I27lu5TlKeBHoOXY8hL%2F9ukkfq0LMWkLn7iCWeJH9sVv4mbyMQB82bK%2FHJM2W%2FSQK%2F0Lw6Goy4LTQbo%2F8iwVHhQTjv%2BF9JESjaohwOyxUpAVTSa0Ebc0J%2FeHWZqefxqjvFtt2sRfLGnOh9lboyYw8%2FRHbd7I5lgVqoukO0jd3ib5Kuxqp8hAgAcUrx%2FheKBjMwbTMogTeCKSAGDnpY%2F9ndosZzdiKOMSpH06WkJQBmhGIgpElX3H1s0hFJ%2FvuxD0sT%2FDQhXfpDimvD0pW9Mt4pGqQVJGdxm9EqZDn0Vw2E4pk0jvHIvDCdlf9B7uoxMJTo3b8GOp0BAAt4%2B3rKQVoXRYmVn4Op5ZcXfXxKxQCpzmuw%2Fh23ptEhZtYDKvKSC%2BaF9f9KcPGkOnEAnBTNmJn%2FORe7ObBXDsySEsuDCyGglbFDDqo%2FXzM0cYJDHz9dvtopmGi53MOD8IuIfHbKYqq7Jhm5zyLthVwH%2Fjf0ukbNq3m1iMhahiED6LASchUIZF5%2FzAMM0fXUdQwVvZTpa3rcMZF9vQ%3D%3D&X-Amz-Signature=c0d8c5d517aec2b26d4def31155b1de61c0d9d4802e8371ee5b2c52b1b0edb4d
p37
sg28
Vtk-multi-devutils_v1.3.1.zip
p38
sg30
Vapplication/zip
p39
sg31
Vupload
p40
sg13
VAttachment
p41
sg15
I33689
sss.