(dp0
Vsg_bundle_data
p1
(dp2
Vtype
p3
VCustomNonProjectEntity02
p4
sVid
p5
I50
sVsg_system_name
p6
Vtk-multi-screeningroom
p7
sVsg_status_list
p8
Vdepl
p9
sVsg_deprecation_message
p10
NssVsg_version_data
p11
(dp12
Vtype
p13
VCustomNonProjectEntity05
p14
sVid
p15
I7183
sVcode
p16
Vv0.6.2
p17
sVsg_status_list
p18
Vprod
p19
sVdescription
p20
VFix import syntax that could lead to bugs on file screeningroom.py
p21
sVtags
p22
(lp23
sVsg_detailed_release_notes
p24
(dp25
Vurl
p26
Vhttps://community.shotgridsoftware.com/t/a-new-version-of-tk-multi-screeningroom-has-been-released/14142/5
p27
sVname
p28
Vv0.6.2
p29
sVcontent_type
p30
NsVlink_type
p31
Vweb
p32
sg13
VAttachment
p33
sg15
I34370
ssVsg_documentation
p34
(dp35
g26
Vhttps://developer.shotgridsoftware.com/219032978
p36
sg28
VDocumentation
p37
sg30
Nsg31
Vweb
p38
sg13
VAttachment
p39
sg15
I34365
ssVsg_payload
p40
(dp41
g26
Vhttps://s3-proxy.shotgunstudio.com/d18c13bf0e59a9a82f18be518a1b6b508bcbd774/d5a62cc26f43e941bf583bc8a16e6957e752445e/tk-multi-screeningroom_v0.6.2.zip?response-content-disposition=filename%3D%22tk-multi-screeningroom_v0.6.2.zip%22&x-amz-meta-user-id=42&x-amz-meta-user-type=ApiUser&X-Amz-Algorithm=AWS4-HMAC-SHA256&X-Amz-Credential=ASIAYJG6Z4JI4GILQAKI%2F20250410%2Fus-west-2%2Fs3%2Faws4_request&X-Amz-Date=20250410T080708Z&X-Amz-SignedHeaders=host&X-Amz-Expires=900&X-Amz-Security-Token=IQoJb3JpZ2luX2VjECgaCXVzLWVhc3QtMSJGMEQCIC3%2Bkj%2B%2FpkozTxweG4pdbPxmc3ArEXOre%2FhvvugRvKSjAiBI01TjJHa4MD360flZr%2B57lVf%2BoF0N6AuRnBHRr2gB9iqhAgih%2F%2F%2F%2F%2F%2F%2F%2F%2F%2F8BEAAaDDU2OTU1MDQzMDgwMSIMI9uaIY8Qn5G3%2BiXkKvUBtxBw5yzqVx57eFgb70MK5p%2B0Au%2FcY9TS%2Bb1KMS9%2BOZN5%2BZSX6FYgtewxRIdy7HWFFH6wsilLrHOOK6tOCfPX2bqJ%2B8xEEWkwZFy32sGIsTwcHE0S8GOh7L4cbtw%2BxOJzrLjH5lhujrgsRRmwZHBqDBA2ZmiMTAoKf%2BGTKwUTza70gyNtriiV0rtpfsuoPgO%2Fr7h8uNWpMEU5SKRMZWRh3nGNDFECLduIiOUkOi0SrUsWyDzxZguK2s%2FUpJ7nrcJPgqI1RumEvVZzOl2m2R3UKHgKJRgvLfeAvtrHZP5ypl0U%2FvrtktdNPz9YZAG02Mq9PqLsjrYwkfDdvwY6ngH%2BlrxYTYqHzI9P5WM%2Fs%2FfOBm94NSsYj3SrKg4LXlBSL4%2FoEk1qhaMuzBzTfYIv58Dpzeb%2BD8lQwOs%2B%2BWgbF14JrktTbFGaRllNhQXRgUB4JhFECwyWmXpCE3u3KFVE1%2FcioEMyCYSEKQbVQrp0gFnYktJX29%2FW1w85Te3vUzaZUIjzaqMGiNHaYyH5%2B5Vrq77BijENaMwGh5yU0qficg%3D%3D&X-Amz-Signature=a054b5c51a0e733b7f9cd8509f410599d69925aa005b5c3b4e1290ba564116d5
p42
sg28
Vtk-multi-screeningroom_v0.6.2.zip
p43
sg30
Vapplication/zip
p44
sg31
Vupload
p45
sg13
VAttachment
p46
sg15
I34366
sss.