(dp0
Vsg_bundle_data
p1
(dp2
Vtype
p3
VCustomNonProjectEntity02
p4
sVid
p5
I368
sVsg_system_name
p6
Vtk-multi-bg-publish
p7
sVsg_status_list
p8
Vdepl
p9
sVsg_deprecation_message
p10
NssVsg_version_data
p11
(dp12
Vtype
p13
VCustomNonProjectEntity05
p14
sVid
p15
I7017
sVcode
p16
Vv0.2.1
p17
sVsg_status_list
p18
Vprod
p19
sVdescription
p20
VBug fix to get the engine after bootstrapping
p21
sVtags
p22
(lp23
sVsg_detailed_release_notes
p24
(dp25
Vurl
p26
Vhttps://community.shotgridsoftware.com/t/a-new-version-of-tk-multi-bg-publish-has-been-released/16141/8
p27
sVname
p28
Vv0.2.1
p29
sVcontent_type
p30
NsVlink_type
p31
Vweb
p32
sg13
VAttachment
p33
sg15
I33805
ssVsg_documentation
p34
NsVsg_payload
p35
(dp36
g26
Vhttps://s3-proxy.shotgunstudio.com/d18c13bf0e59a9a82f18be518a1b6b508bcbd774/2804f9d2350d74bfaff42274e50e92958becd35d/tk-multi-bg-publish_v0.2.1.zip?response-content-disposition=filename%3D%22tk-multi-bg-publish_v0.2.1.zip%22&x-amz-meta-user-id=42&x-amz-meta-user-type=ApiUser&X-Amz-Algorithm=AWS4-HMAC-SHA256&X-Amz-Credential=ASIAYJG6Z4JI4DHOLABN%2F20250410%2Fus-west-2%2Fs3%2Faws4_request&X-Amz-Date=20250410T080949Z&X-Amz-SignedHeaders=host&X-Amz-Expires=900&X-Amz-Security-Token=IQoJb3JpZ2luX2VjECgaCXVzLWVhc3QtMSJIMEYCIQCabfFtzkn6GCeehc3Y9oB6fDcxazta8MG3ZXvVLhqlKQIhAMHnTG%2FiDxnL%2BXWWIJ%2BuA3XeR2Y33qXxOR7tbVYQr4%2BgKqECCKD%2F%2F%2F%2F%2F%2F%2F%2F%2F%2FwEQABoMNTY5NTUwNDMwODAxIgwMmG80ekjmjMBe6G8q9QE4bHfByh8ZViDFtTxlejoRP785NUL2gerKt2jaAOKxzUWwjg%2B%2FCwchzkickCcCHQP%2FXrwXzqIpIPlqBuBvkXxjujbsj3o%2FWahhmJAyzBB0Q5JLeeemEjOMrx0yyzcdTfK%2Bz86R%2BA8VKXAgjblSiAaQh2QeXiGbbe8qVdk%2BRjeuiIKZvLq8LIipbdQNMg3atbjDdHCqGTdLszoIjqg7ZCiHv%2F6JNEYsVc1FbUsY4HoSOYPOVzZjvm7617LoJMkfP1S47XZfadeKCb8Gl4WUQjy8cgG3ujcpuIAZ%2BS2R3fd2DaeVYsjFi5HBOGI1EoDY4K3sRLcaZDD34t2%2FBjqcATANbuf%2FwRn9SlORdkXVB6pjQazrb24TPlsGtE1BOwaAUAwE6UibDEXqThzhjF3u1BOKfDFKeP8JBZ65X8pyc7WlvC3UQMnUBg%2FDxY33rIfVr7ZDyVFPR8j4S3ui5woSeyqgjrwlwULUMl%2B%2B4Ks5%2FqhpEVGVyS4%2FR6V2dEIZMz%2B3nQgfE5u0sEvSDJ0O7ewZl%2BxkHwEnUYD4m%2BXVqw%3D%3D&X-Amz-Signature=d6a0846c331c4e81cb2a4004f8edda14799a580b9fac3491b07da433d4cc0633
p37
sg28
Vtk-multi-bg-publish_v0.2.1.zip
p38
sg30
Vapplication/zip
p39
sg31
Vupload
p40
sg13
VAttachment
p41
sg15
I33795
sss.