(dp0
Vsg_bundle_data
p1
(dp2
Vtype
p3
VCustomNonProjectEntity13
p4
sVid
p5
I7
sVsg_system_name
p6
Vtk-framework-adminui
p7
sVsg_status_list
p8
Vdepl
p9
sVsg_deprecation_message
p10
NssVsg_version_data
p11
(dp12
Vtype
p13
VCustomNonProjectEntity09
p14
sVid
p15
I4869
sVcode
p16
Vv0.8.0
p17
sVsg_status_list
p18
Vprod
p19
sVdescription
p20
V- Formalize the end of CentOS support.
p21
sVtags
p22
(lp23
sVsg_detailed_release_notes
p24
(dp25
Vurl
p26
Vhttps://community.shotgridsoftware.com/t/a-new-version-of-tk-framework-adminui-has-been-released/14119/9
p27
sVname
p28
Vv0.8.0
p29
sVcontent_type
p30
NsVlink_type
p31
Vweb
p32
sg13
VAttachment
p33
sg15
I34601
ssVsg_documentation
p34
(dp35
g26
Vhttps://developer.shotgridsoftware.com/219040048
p36
sg28
VDocumentation
p37
sg30
Nsg31
Vweb
p38
sg13
VAttachment
p39
sg15
I34599
ssVsg_payload
p40
(dp41
g26
Vhttps://s3-proxy.shotgunstudio.com/d18c13bf0e59a9a82f18be518a1b6b508bcbd774/37063a34b0858f0e8a78977f66ccac473cc503ef/tk-framework-adminui_v0.8.0.zip?response-content-disposition=filename%3D%22tk-framework-adminui_v0.8.0.zip%22&x-amz-meta-user-id=42&x-amz-meta-user-type=ApiUser&X-Amz-Algorithm=AWS4-HMAC-SHA256&X-Amz-Credential=ASIAYJG6Z4JIWKYEFGIS%2F20250410%2Fus-west-2%2Fs3%2Faws4_request&X-Amz-Date=20250410T080516Z&X-Amz-SignedHeaders=host&X-Amz-Expires=900&X-Amz-Security-Token=IQoJb3JpZ2luX2VjECgaCXVzLWVhc3QtMSJHMEUCIQDCmzVLVDlGfcTU4fvlzcCzUrqxsIX3x9t9TNKTw1nHlQIgHxx0ueCtyU40z%2BUQEmbJsBoozn37CX%2B%2F%2FDNlB0YHvGMqoQIIof%2F%2F%2F%2F%2F%2F%2F%2F%2F%2FARAAGgw1Njk1NTA0MzA4MDEiDJC2%2F77NAlDZphmTwCr1AQ0dENdcJvvAlUGEpo86JPPqACGXOjhbF4YejfGl8YNyIeRDMelovJo0OJ49VVXlqfIHqcERo2XuC%2B1mrLyj8j309%2ByjFgWbEtc87TvPSUy9cBgh7nYKIAknk96CgNCaKlupcnG59%2F65x%2FzxWy8OS4BkW9RO4aQRPi6JkTBdaLHFeeW25QBE2Ej0Zs0bJiQblO9tcc2DYBnGICjC7fEgI3NovYNU5aUvoXD4pYRDefZkBLo2JIgLnbFY%2Fc0Qs0gfNuHdZS38ADvIgVisvBb62cZQ3VNecmSxakedQzPjWhdPVEoA6WZUNeer7GqaHOD%2F3CIKb2h2MLjq3b8GOp0BPkQCEfC%2FvCFKLit5fp9ewYYbvIuhbP7DKfJVt6ZBwqwT5MdFMoIPk6Da%2BORt%2BTuV6IpyGRmPRtMSjUILafjj7wSVyqhksJo9uxIoMOnVkK4bxQPs4YDoVsi8rq6CkMVkByCg8F3LkrrLobakxZZ0xZ0bn%2F6Dp8isSuU7bfsmZeKZq2%2BbZ4hUW0aqlklLq12WNpKpxLHNMwniijn4dA%3D%3D&X-Amz-Signature=f745dc881140129718d04f32b929d410fd4ff3b0b1b3d11ba531663d21165217
p42
sg28
Vtk-framework-adminui_v0.8.0.zip
p43
sg30
Vapplication/zip
p44
sg31
Vupload
p45
sg13
VAttachment
p46
sg15
I34600
sss.