(dp0
Vsg_bundle_data
p1
(dp2
Vtype
p3
VCustomNonProjectEntity03
p4
sVid
p5
I55
sVsg_system_name
p6
Vtk-desktop2
p7
sVsg_status_list
p8
Vhidden
p9
sVsg_deprecation_message
p10
NssVsg_version_data
p11
(dp12
Vtype
p13
VCustomNonProjectEntity04
p14
sVid
p15
I6125
sVcode
p16
Vv1.6.1
p17
sVsg_status_list
p18
Vprod
p19
sVdescription
p20
VRemoved Python 2 code.
p21
sVtags
p22
(lp23
sVsg_detailed_release_notes
p24
(dp25
Vurl
p26
Vhttps://community.shotgridsoftware.com/t/a-new-version-of-tk-desktop2-has-been-released/14118/4
p27
sVname
p28
Vv1.6.1
p29
sVcontent_type
p30
NsVlink_type
p31
Vweb
p32
sg13
VAttachment
p33
sg15
I35087
ssVsg_documentation
p34
(dp35
g26
Vhttps://developer.shotgridsoftware.com/360013191574
p36
sg28
VDocumentation
p37
sg30
Nsg31
Vweb
p38
sg13
VAttachment
p39
sg15
I34953
ssVsg_payload
p40
(dp41
g26
Vhttps://s3-proxy.shotgunstudio.com/d18c13bf0e59a9a82f18be518a1b6b508bcbd774/4bb2eed3f41fc11d38d7be048b16ec03e2ab438c/tk-desktop2_v1.6.1.zip?response-content-disposition=filename%3D%22tk-desktop2_v1.6.1.zip%22&x-amz-meta-user-id=42&x-amz-meta-user-type=ApiUser&X-Amz-Algorithm=AWS4-HMAC-SHA256&X-Amz-Credential=ASIAYJG6Z4JIQL4KXEXZ%2F20250410%2Fus-west-2%2Fs3%2Faws4_request&X-Amz-Date=20250410T080506Z&X-Amz-SignedHeaders=host&X-Amz-Expires=900&X-Amz-Security-Token=IQoJb3JpZ2luX2VjECgaCXVzLWVhc3QtMSJGMEQCIFpTG1EMMMCktz1OhucwHuJ0DpG84Gds6bWa7dyu6cocAiBsalZorXK7R1ioKxcB5Px53OaAwqpW6Dg0qkdao63GYyqhAgih%2F%2F%2F%2F%2F%2F%2F%2F%2F%2F8BEAAaDDU2OTU1MDQzMDgwMSIMbntRVuI2uwLkLRMUKvUBHOIwST3ywW5VAX2EDcq%2BuyX8Q5YJAMHlpPvMNP2KkmY7LHuybtjVU2QN63Ll%2BCjIBG8ob8YKwQPk%2FrvvccX1wqgfn9pRFX%2Byoa3wciHEhwa7kELMQ9VBFnLG1QYlwYab3QnZZsFV2Ci2bAK1qceKfYe4JNue823%2FIXMs0D6Xffdal5WnsCYa4xy3Qxiuchrs4KpPWwEA%2FVlW2h4PiLiOLOAXC%2B7jOQVfj%2B91rvW%2BXHU4pTbwPqOVZD4Bxzzyn62nDh49dzf262oawXKV4HQUVBS89RSUla%2Fep2vV9X8DtxP1UrJAYlaCQioy2WjvQgFyJ2Ox8vYwjefdvwY6ngHJ6MdQAXpQIVgIgX2u5a4GAQcneDgQbjFyL7pmRgJsk7gxG1ERUgYpPoaASrAIUlFSxutiUwi0Jv46wuIqVCX0lpKGidVMxhgrXXKTU7PfGaCnRccYMOrpVQZK%2BYik6mdQp30kWJTwVcPW2%2FBlDyZ15HeuOvOdPHTRr757ds%2FEDxdPHwqt6lcmz0hKpY4Ewr0ascSN%2F2Ravo0WTvUljQ%3D%3D&X-Amz-Signature=b8f11a229737d10969c94ed5998dc44000e22badaea8389a084dfb3d0d96141a
p42
sg28
Vtk-desktop2_v1.6.1.zip
p43
sg30
Vapplication/zip
p44
sg31
Vupload
p45
sg13
VAttachment
p46
sg15
I34954
sss.