(dp0
Vsg_bundle_data
p1
NsVsg_version_data
p2
(dp3
Vtype
p4
VCustomNonProjectEntity01
p5
sVid
p6
I2750
sVcode
p7
Vv0.22.2
p8
sVsg_status_list
p9
Vprod
p10
sVdescription
p11
V* Minor improvement in pre-commit configuration file.
p12
sVtags
p13
(lp14
sVsg_detailed_release_notes
p15
(dp16
Vurl
p17
Vhttps://community.shotgridsoftware.com/t/a-new-version-of-tk-core-has-been-released/13647/34
p18
sVname
p19
Vv0.22.2
p20
sVcontent_type
p21
NsVlink_type
p22
Vweb
p23
sg4
VAttachment
p24
sg6
I35095
ssVsg_documentation
p25
(dp26
g17
Vhttps://help.autodesk.com/view/SGDEV/ENU/?contextId=SA_INTEGRATIONS_USER_GUIDE
p27
sg19
VDocumentation
p28
sg21
Nsg22
Vweb
p29
sg4
VAttachment
p30
sg6
I34938
ssVsg_payload
p31
(dp32
g17
Vhttps://s3-proxy.shotgunstudio.com/d18c13bf0e59a9a82f18be518a1b6b508bcbd774/a15bc7574dacbcf0fa4fd728a63aac4e1e06956c/sgtk_core_v0.22.2.zip?response-content-disposition=filename%3D%22sgtk_core_v0.22.2.zip%22&x-amz-meta-user-id=42&x-amz-meta-user-type=ApiUser&X-Amz-Algorithm=AWS4-HMAC-SHA256&X-Amz-Credential=ASIAYJG6Z4JIX5YF2R7S%2F20250404%2Fus-west-2%2Fs3%2Faws4_request&X-Amz-Date=20250404T074720Z&X-Amz-SignedHeaders=host&X-Amz-Expires=900&X-Amz-Security-Token=IQoJb3JpZ2luX2VjEJj%2F%2F%2F%2F%2F%2F%2F%2F%2F%2FwEaCXVzLWVhc3QtMSJHMEUCIGlhPBDh1JnA6egb2SMa1rvHlJ%2Fqv2dn32usC0hj%2BIdXAiEAt%2FwquIIod%2Ba%2BtvVUbTwlh6nirgSA8FKU8SHCh3a0RIAqmAIIERAAGgw1Njk1NTA0MzA4MDEiDE7492gbTD1jx62xKSr1AccSSsmo7lRjLIl3YKUeLQxTTLpIfy5qjqPpXdsOs6Bhnx8nukqJFPUNMww390xSfY7Bn8eaaJQ4Pv7Yuw8KyDxNfqfPx7pAldJ9NreISNS%2F%2FcL1fcxkWOMFsjVGRM7pEUYiv4Y2XlAbFJemV%2Fhhb%2F78yCtJZUFhgfc5mBNMtNgECxX2VwRmySsNX7%2FMcYlUJe4hKDyY7ODLndOVy1LyeMAWD8cEs%2BYw2KMmKK8HNGhFZtvQwll8oeKIvpLj0sjST4IxAmJbcXVjCDrRgR4FSovIelotnjlRGBmprYbCQxdExFGF32Tqs2p0aS%2Fmh5H6WMhv6Tw5MJ%2BUvr8GOp0B7VfQ4gCZhvx%2F2Cm0fmw1saNpsUyN962%2B%2Fc%2BRZH%2Bs%2BsN1FVEzVQAf3sLgCYMXbfjhIButyYkvtSnuT8Bf9rjDM3mjcN%2FAUYG53nYdms6%2F5z%2BOUcLbcEZ8MTaB3h9p76CpGDD4h2QqBF%2B5VLw%2BwmGjSVjGjwYqPWgNj5ZAkZSbhGK7HtYnz13dbJdzszUJswG1mPbR8tyXmgRJhJCB4g%3D%3D&X-Amz-Signature=e8ed5b02bc4f0606aaefe8272cbf5d6c74af8fd7c10f49397b1677d29cc95ebd
p33
sg19
Vsgtk_core_v0.22.2.zip
p34
sg21
Vapplication/zip
p35
sg22
Vupload
p36
sg4
VAttachment
p37
sg6
I34939
sss.