(dp0
Vsg_bundle_data
p1
(dp2
Vtype
p3
VCustomNonProjectEntity13
p4
sVid
p5
I1
sVsg_system_name
p6
Vtk-framework-widget
p7
sVsg_status_list
p8
Vhidden
p9
sVsg_deprecation_message
p10
NssVsg_version_data
p11
(dp12
Vtype
p13
VCustomNonProjectEntity09
p14
sVid
p15
I4541
sVcode
p16
Vv1.2.1
p17
sVsg_status_list
p18
Vprod
p19
sVdescription
p20
V* Drop Python 2 compatibility - part 1
p21
sVtags
p22
(lp23
sVsg_detailed_release_notes
p24
(dp25
Vurl
p26
Vhttps://community.shotgridsoftware.com/t/a-new-version-of-tk-framework-widget-has-been-released/14122/4
p27
sVname
p28
Vv1.2.1
p29
sVcontent_type
p30
NsVlink_type
p31
Vweb
p32
sg13
VAttachment
p33
sg15
I33719
ssVsg_documentation
p34
NsVsg_payload
p35
(dp36
g26
Vhttps://s3-proxy.shotgunstudio.com/d18c13bf0e59a9a82f18be518a1b6b508bcbd774/8aa55ec2c914405d17cbd60cf0a664f012aba4c1/tk-framework-widget_v1.2.1.zip?response-content-disposition=filename%3D%22tk-framework-widget_v1.2.1.zip%22&x-amz-meta-user-id=42&x-amz-meta-user-type=ApiUser&X-Amz-Algorithm=AWS4-HMAC-SHA256&X-Amz-Credential=ASIAYJG6Z4JIWKYEFGIS%2F20250410%2Fus-west-2%2Fs3%2Faws4_request&X-Amz-Date=20250410T080617Z&X-Amz-SignedHeaders=host&X-Amz-Expires=900&X-Amz-Security-Token=IQoJb3JpZ2luX2VjECgaCXVzLWVhc3QtMSJHMEUCIQDCmzVLVDlGfcTU4fvlzcCzUrqxsIX3x9t9TNKTw1nHlQIgHxx0ueCtyU40z%2BUQEmbJsBoozn37CX%2B%2F%2FDNlB0YHvGMqoQIIof%2F%2F%2F%2F%2F%2F%2F%2F%2F%2FARAAGgw1Njk1NTA0MzA4MDEiDJC2%2F77NAlDZphmTwCr1AQ0dENdcJvvAlUGEpo86JPPqACGXOjhbF4YejfGl8YNyIeRDMelovJo0OJ49VVXlqfIHqcERo2XuC%2B1mrLyj8j309%2ByjFgWbEtc87TvPSUy9cBgh7nYKIAknk96CgNCaKlupcnG59%2F65x%2FzxWy8OS4BkW9RO4aQRPi6JkTBdaLHFeeW25QBE2Ej0Zs0bJiQblO9tcc2DYBnGICjC7fEgI3NovYNU5aUvoXD4pYRDefZkBLo2JIgLnbFY%2Fc0Qs0gfNuHdZS38ADvIgVisvBb62cZQ3VNecmSxakedQzPjWhdPVEoA6WZUNeer7GqaHOD%2F3CIKb2h2MLjq3b8GOp0BPkQCEfC%2FvCFKLit5fp9ewYYbvIuhbP7DKfJVt6ZBwqwT5MdFMoIPk6Da%2BORt%2BTuV6IpyGRmPRtMSjUILafjj7wSVyqhksJo9uxIoMOnVkK4bxQPs4YDoVsi8rq6CkMVkByCg8F3LkrrLobakxZZ0xZ0bn%2F6Dp8isSuU7bfsmZeKZq2%2BbZ4hUW0aqlklLq12WNpKpxLHNMwniijn4dA%3D%3D&X-Amz-Signature=fc53e493e43e7860ead7cf6b91301351114c82e499b96b2c333d1630265803cf
p37
sg28
Vtk-framework-widget_v1.2.1.zip
p38
sg30
Vapplication/zip
p39
sg31
Vupload
p40
sg13
VAttachment
p41
sg15
I33716
sss.