(dp0
Vsg_bundle_data
p1
(dp2
Vtype
p3
VCustomNonProjectEntity13
p4
sVid
p5
I1
sVsg_system_name
p6
Vtk-framework-widget
p7
sVsg_status_list
p8
Vhidden
p9
sVsg_deprecation_message
p10
NssVsg_version_data
p11
(dp12
Vtype
p13
VCustomNonProjectEntity09
p14
sVid
p15
I938
sVcode
p16
Vv0.2.8
p17
sVsg_status_list
p18
Vprod
p19
sVdescription
p20
VAdds Python 3 support.
p21
sVtags
p22
(lp23
sVsg_detailed_release_notes
p24
NsVsg_documentation
p25
NsVsg_payload
p26
(dp27
Vurl
p28
Vhttps://s3-proxy.shotgunstudio.com/d18c13bf0e59a9a82f18be518a1b6b508bcbd774/5bf12ffba81768a80e4c3fb738de8f60794b139b/tk-framework-widget_v0.2.8.zip?response-content-disposition=filename%3D%22tk-framework-widget_v0.2.8.zip%22&x-amz-meta-user-id=42&x-amz-meta-user-type=ApiUser&X-Amz-Algorithm=AWS4-HMAC-SHA256&X-Amz-Credential=ASIAYJG6Z4JI5SO4TCLG%2F20250410%2Fus-west-2%2Fs3%2Faws4_request&X-Amz-Date=20250410T080613Z&X-Amz-SignedHeaders=host&X-Amz-Expires=900&X-Amz-Security-Token=IQoJb3JpZ2luX2VjECgaCXVzLWVhc3QtMSJHMEUCIQDpAumz0b%2F9179Ldq6W314Hlx83GfNYj1V8t3oz8hH6%2BgIgH21nUKCeJf8nVed9it2W1rKXnfrh%2BXaVezoyJHJ4Q3UqoQIIof%2F%2F%2F%2F%2F%2F%2F%2F%2F%2FARAAGgw1Njk1NTA0MzA4MDEiDN8jQSIgC1B2HAiIrir1AUalyYYHS6I27lu5TlKeBHoOXY8hL%2F9ukkfq0LMWkLn7iCWeJH9sVv4mbyMQB82bK%2FHJM2W%2FSQK%2F0Lw6Goy4LTQbo%2F8iwVHhQTjv%2BF9JESjaohwOyxUpAVTSa0Ebc0J%2FeHWZqefxqjvFtt2sRfLGnOh9lboyYw8%2FRHbd7I5lgVqoukO0jd3ib5Kuxqp8hAgAcUrx%2FheKBjMwbTMogTeCKSAGDnpY%2F9ndosZzdiKOMSpH06WkJQBmhGIgpElX3H1s0hFJ%2FvuxD0sT%2FDQhXfpDimvD0pW9Mt4pGqQVJGdxm9EqZDn0Vw2E4pk0jvHIvDCdlf9B7uoxMJTo3b8GOp0BAAt4%2B3rKQVoXRYmVn4Op5ZcXfXxKxQCpzmuw%2Fh23ptEhZtYDKvKSC%2BaF9f9KcPGkOnEAnBTNmJn%2FORe7ObBXDsySEsuDCyGglbFDDqo%2FXzM0cYJDHz9dvtopmGi53MOD8IuIfHbKYqq7Jhm5zyLthVwH%2Fjf0ukbNq3m1iMhahiED6LASchUIZF5%2FzAMM0fXUdQwVvZTpa3rcMZF9vQ%3D%3D&X-Amz-Signature=fdf6d8fe96855423054b0a9c397f751129292e55675873538b98faa76feeb791
p29
sVname
p30
Vtk-framework-widget_v0.2.8.zip
p31
sVcontent_type
p32
Vapplication/zip
p33
sVlink_type
p34
Vupload
p35
sg13
VAttachment
p36
sg15
I21722
sss.