(dp0
Vsg_bundle_data
p1
(dp2
Vtype
p3
VCustomNonProjectEntity02
p4
sVid
p5
I143
sVsg_system_name
p6
Vtk-flame-review
p7
sVsg_status_list
p8
Vdepl
p9
sVsg_deprecation_message
p10
NssVsg_version_data
p11
(dp12
Vtype
p13
VCustomNonProjectEntity05
p14
sVid
p15
I7150
sVcode
p16
Vv1.5.4
p17
sVsg_status_list
p18
Vprod
p19
sVdescription
p20
VDrop compatibility with Python 2
p21
sVtags
p22
(lp23
sVsg_detailed_release_notes
p24
NsVsg_documentation
p25
(dp26
Vurl
p27
Vhttps://developer.shotgridsoftware.com/219041168
p28
sVname
p29
VDocumentation
p30
sVcontent_type
p31
NsVlink_type
p32
Vweb
p33
sg13
VAttachment
p34
sg15
I34293
ssVsg_payload
p35
(dp36
g27
Vhttps://s3-proxy.shotgunstudio.com/d18c13bf0e59a9a82f18be518a1b6b508bcbd774/57e79f02254c825d7975c246ee97db9e8625bf4f/tk-flame-review_v1.5.4.zip?response-content-disposition=filename%3D%22tk-flame-review_v1.5.4.zip%22&x-amz-meta-user-id=42&x-amz-meta-user-type=ApiUser&X-Amz-Algorithm=AWS4-HMAC-SHA256&X-Amz-Credential=ASIAYJG6Z4JI5SO4TCLG%2F20250410%2Fus-west-2%2Fs3%2Faws4_request&X-Amz-Date=20250410T080912Z&X-Amz-SignedHeaders=host&X-Amz-Expires=900&X-Amz-Security-Token=IQoJb3JpZ2luX2VjECgaCXVzLWVhc3QtMSJHMEUCIQDpAumz0b%2F9179Ldq6W314Hlx83GfNYj1V8t3oz8hH6%2BgIgH21nUKCeJf8nVed9it2W1rKXnfrh%2BXaVezoyJHJ4Q3UqoQIIof%2F%2F%2F%2F%2F%2F%2F%2F%2F%2FARAAGgw1Njk1NTA0MzA4MDEiDN8jQSIgC1B2HAiIrir1AUalyYYHS6I27lu5TlKeBHoOXY8hL%2F9ukkfq0LMWkLn7iCWeJH9sVv4mbyMQB82bK%2FHJM2W%2FSQK%2F0Lw6Goy4LTQbo%2F8iwVHhQTjv%2BF9JESjaohwOyxUpAVTSa0Ebc0J%2FeHWZqefxqjvFtt2sRfLGnOh9lboyYw8%2FRHbd7I5lgVqoukO0jd3ib5Kuxqp8hAgAcUrx%2FheKBjMwbTMogTeCKSAGDnpY%2F9ndosZzdiKOMSpH06WkJQBmhGIgpElX3H1s0hFJ%2FvuxD0sT%2FDQhXfpDimvD0pW9Mt4pGqQVJGdxm9EqZDn0Vw2E4pk0jvHIvDCdlf9B7uoxMJTo3b8GOp0BAAt4%2B3rKQVoXRYmVn4Op5ZcXfXxKxQCpzmuw%2Fh23ptEhZtYDKvKSC%2BaF9f9KcPGkOnEAnBTNmJn%2FORe7ObBXDsySEsuDCyGglbFDDqo%2FXzM0cYJDHz9dvtopmGi53MOD8IuIfHbKYqq7Jhm5zyLthVwH%2Fjf0ukbNq3m1iMhahiED6LASchUIZF5%2FzAMM0fXUdQwVvZTpa3rcMZF9vQ%3D%3D&X-Amz-Signature=573f5cbba3f69317bd980b0f4e5880a8b6970fc1e1ee9dbbb0cd229a47a8f802
p37
sg29
Vtk-flame-review_v1.5.4.zip
p38
sg31
Vapplication/zip
p39
sg32
Vupload
p40
sg13
VAttachment
p41
sg15
I34294
sss.