(dp0
Vsg_bundle_data
p1
(dp2
Vtype
p3
VCustomNonProjectEntity02
p4
sVid
p5
I140
sVsg_system_name
p6
Vtk-mari-projectmanager
p7
sVsg_status_list
p8
Vdepl
p9
sVsg_deprecation_message
p10
NssVsg_version_data
p11
(dp12
Vtype
p13
VCustomNonProjectEntity05
p14
sVid
p15
I6998
sVcode
p16
Vv1.4.1
p17
sVsg_status_list
p18
Vprod
p19
sVdescription
p20
V* New Qt UI resource process
p21
sVtags
p22
(lp23
sVsg_detailed_release_notes
p24
(dp25
Vurl
p26
Vhttps://community.shotgridsoftware.com/t/a-new-version-of-tk-mari-projectmanager-has-been-released/14131/4
p27
sVname
p28
Vv1.4.1
p29
sVcontent_type
p30
NsVlink_type
p31
Vweb
p32
sg13
VAttachment
p33
sg15
I33723
ssVsg_documentation
p34
(dp35
g26
Vhttps://developer.shotgridsoftware.com/219041628
p36
sg28
VDocumentation
p37
sg30
Nsg31
Vweb
p38
sg13
VAttachment
p39
sg15
I33721
ssVsg_payload
p40
(dp41
g26
Vhttps://s3-proxy.shotgunstudio.com/d18c13bf0e59a9a82f18be518a1b6b508bcbd774/b014752af8e3a4ad000ae8e5fe563bcf2459d77d/tk-mari-projectmanager_v1.4.1.zip?response-content-disposition=filename%3D%22tk-mari-projectmanager_v1.4.1.zip%22&x-amz-meta-user-id=42&x-amz-meta-user-type=ApiUser&X-Amz-Algorithm=AWS4-HMAC-SHA256&X-Amz-Credential=ASIAYJG6Z4JIRT3O5PS5%2F20250410%2Fus-west-2%2Fs3%2Faws4_request&X-Amz-Date=20250410T080940Z&X-Amz-SignedHeaders=host&X-Amz-Expires=900&X-Amz-Security-Token=IQoJb3JpZ2luX2VjECgaCXVzLWVhc3QtMSJHMEUCIQDuWLivXgqCb7m%2BBS0vgt0jI4OfAMycpIqjVRg%2BXwkdlwIgWkpKZuSC1nnfh6AOEGD0tGh5jFgPKH%2FnQH25qHQGE%2FEqoQIIof%2F%2F%2F%2F%2F%2F%2F%2F%2F%2FARAAGgw1Njk1NTA0MzA4MDEiDAmaqlXOfJwQ8m2LVir1AQVwM2vF6tHOp6XXLuei0InMENUTHFROfakEncgcrfVAYlg9I59q3nS78u6mU5Ex2GrNJlYL2TrSIpf4dRoKdjLhTeV3IkiVbRfPTA2xbstV%2B1Lj%2B83yBA3yC6xtVxBSj9CKD8n4jkLWaRSeQxIdbcC00zFbvvi0TkmNlKQzSjCMue9CMzxJGKEPfbMuSAZA3AGWs%2FPNKxEHCyhbxvIUKFK5PNq2hGG0AqKsvf5GSoIVpabwkaSqSdlF4r1%2B%2FV0ObpQYymvadNHFDs%2BU7KMD1FO1nJazScf4stiX3ga0%2FIXxIarZKAtnyU6nsXhdp1oLLPWskkCLMJ7q3b8GOp0BAzIXWYXT%2F4hMrK9RrT%2Bwt8L07AyfLZ4UsNMYw5yMf2vp2I3Kd1uvC1h%2FyNLsXoJjDkZMW7O9DbqYP0841slFgq2v6pfIC%2F7sHz9zJmgLkHcYXc563qHu%2BSHbOfYhkFY7z420l2YziCigYG4GRqR7hqVFdiOkCf2ESkz%2Fvfr4d1hVvdQN1oxJMzcdkvcSxXAs6WcbcgpughUfu%2B3BHQ%3D%3D&X-Amz-Signature=6e0841236849d31129ba0afb4aecd6cbcfbf677b1ca050e2be47388eef6ac36f
p42
sg28
Vtk-mari-projectmanager_v1.4.1.zip
p43
sg30
Vapplication/zip
p44
sg31
Vupload
p45
sg13
VAttachment
p46
sg15
I33722
sss.