(dp0
Vsg_bundle_data
p1
(dp2
Vtype
p3
VCustomNonProjectEntity13
p4
sVid
p5
I118
sVsg_system_name
p6
Vtk-framework-alias
p7
sVsg_status_list
p8
Vdepl
p9
sVsg_deprecation_message
p10
NssVsg_version_data
p11
(dp12
Vtype
p13
VCustomNonProjectEntity09
p14
sVid
p15
I5067
sVcode
p16
Vv2.1.4
p17
sVsg_status_list
p18
Vprod
p19
sVdescription
p20
V* eventlet updated to 0.38.0 for python 3.7 requirements.
p21
sVtags
p22
(lp23
sVsg_detailed_release_notes
p24
(dp25
Vurl
p26
Vhttps://community.shotgridsoftware.com/t/a-new-version-of-tk-framework-alias-has-been-released/17673/16
p27
sVname
p28
Vv2.1.4
p29
sVcontent_type
p30
NsVlink_type
p31
Vweb
p32
sg13
VAttachment
p33
sg15
I35094
ssVsg_documentation
p34
NsVsg_payload
p35
(dp36
g26
Vhttps://s3-proxy.shotgunstudio.com/d18c13bf0e59a9a82f18be518a1b6b508bcbd774/07ff697d409fb87eb6feb722cca41700f946333b/tk-framework-alias_v2.1.4.zip?response-content-disposition=filename%3D%22tk-framework-alias_v2.1.4.zip%22&x-amz-meta-user-id=42&x-amz-meta-user-type=ApiUser&X-Amz-Algorithm=AWS4-HMAC-SHA256&X-Amz-Credential=ASIAYJG6Z4JIRT3O5PS5%2F20250410%2Fus-west-2%2Fs3%2Faws4_request&X-Amz-Date=20250410T080539Z&X-Amz-SignedHeaders=host&X-Amz-Expires=900&X-Amz-Security-Token=IQoJb3JpZ2luX2VjECgaCXVzLWVhc3QtMSJHMEUCIQDuWLivXgqCb7m%2BBS0vgt0jI4OfAMycpIqjVRg%2BXwkdlwIgWkpKZuSC1nnfh6AOEGD0tGh5jFgPKH%2FnQH25qHQGE%2FEqoQIIof%2F%2F%2F%2F%2F%2F%2F%2F%2F%2FARAAGgw1Njk1NTA0MzA4MDEiDAmaqlXOfJwQ8m2LVir1AQVwM2vF6tHOp6XXLuei0InMENUTHFROfakEncgcrfVAYlg9I59q3nS78u6mU5Ex2GrNJlYL2TrSIpf4dRoKdjLhTeV3IkiVbRfPTA2xbstV%2B1Lj%2B83yBA3yC6xtVxBSj9CKD8n4jkLWaRSeQxIdbcC00zFbvvi0TkmNlKQzSjCMue9CMzxJGKEPfbMuSAZA3AGWs%2FPNKxEHCyhbxvIUKFK5PNq2hGG0AqKsvf5GSoIVpabwkaSqSdlF4r1%2B%2FV0ObpQYymvadNHFDs%2BU7KMD1FO1nJazScf4stiX3ga0%2FIXxIarZKAtnyU6nsXhdp1oLLPWskkCLMJ7q3b8GOp0BAzIXWYXT%2F4hMrK9RrT%2Bwt8L07AyfLZ4UsNMYw5yMf2vp2I3Kd1uvC1h%2FyNLsXoJjDkZMW7O9DbqYP0841slFgq2v6pfIC%2F7sHz9zJmgLkHcYXc563qHu%2BSHbOfYhkFY7z420l2YziCigYG4GRqR7hqVFdiOkCf2ESkz%2Fvfr4d1hVvdQN1oxJMzcdkvcSxXAs6WcbcgpughUfu%2B3BHQ%3D%3D&X-Amz-Signature=18a8f1516f7e32c078a6bcbe5c7d67e7587fc1139387a76b17bc127c88153f6c
p37
sg28
Vtk-framework-alias_v2.1.4.zip
p38
sg30
Vapplication/zip
p39
sg31
Vupload
p40
sg13
VAttachment
p41
sg15
I35049
sss.