(dp0
Vsg_bundle_data
p1
(dp2
Vtype
p3
VCustomNonProjectEntity02
p4
sVid
p5
I269
sVsg_system_name
p6
Vtk-shotgun-launchvredreview
p7
sVsg_status_list
p8
Vhidden
p9
sVsg_deprecation_message
p10
NssVsg_version_data
p11
(dp12
Vtype
p13
VCustomNonProjectEntity05
p14
sVid
p15
I7151
sVcode
p16
Vv1.2.1
p17
sVsg_status_list
p18
Vprod
p19
sVdescription
p20
VThe import for urllib has changed, removing the dependency on six and Python 2.
p21
sVtags
p22
(lp23
sVsg_detailed_release_notes
p24
(dp25
Vurl
p26
Vhttps://community.shotgridsoftware.com/t/a-new-version-of-tk-shotgun-launchvredreview-has-been-released/14161/7
p27
sVname
p28
Vv1.2.1
p29
sVcontent_type
p30
NsVlink_type
p31
Vweb
p32
sg13
VAttachment
p33
sg15
I34300
ssVsg_documentation
p34
NsVsg_payload
p35
(dp36
g26
Vhttps://s3-proxy.shotgunstudio.com/d18c13bf0e59a9a82f18be518a1b6b508bcbd774/b6574344f6e7fd970baa61eb8dbf18412f048c3b/tk-shotgun-launchvredreview_v1.2.1.zip?response-content-disposition=filename%3D%22tk-shotgun-launchvredreview_v1.2.1.zip%22&x-amz-meta-user-id=42&x-amz-meta-user-type=ApiUser&X-Amz-Algorithm=AWS4-HMAC-SHA256&X-Amz-Credential=ASIAYJG6Z4JIWKYEFGIS%2F20250410%2Fus-west-2%2Fs3%2Faws4_request&X-Amz-Date=20250410T080936Z&X-Amz-SignedHeaders=host&X-Amz-Expires=900&X-Amz-Security-Token=IQoJb3JpZ2luX2VjECgaCXVzLWVhc3QtMSJHMEUCIQDCmzVLVDlGfcTU4fvlzcCzUrqxsIX3x9t9TNKTw1nHlQIgHxx0ueCtyU40z%2BUQEmbJsBoozn37CX%2B%2F%2FDNlB0YHvGMqoQIIof%2F%2F%2F%2F%2F%2F%2F%2F%2F%2FARAAGgw1Njk1NTA0MzA4MDEiDJC2%2F77NAlDZphmTwCr1AQ0dENdcJvvAlUGEpo86JPPqACGXOjhbF4YejfGl8YNyIeRDMelovJo0OJ49VVXlqfIHqcERo2XuC%2B1mrLyj8j309%2ByjFgWbEtc87TvPSUy9cBgh7nYKIAknk96CgNCaKlupcnG59%2F65x%2FzxWy8OS4BkW9RO4aQRPi6JkTBdaLHFeeW25QBE2Ej0Zs0bJiQblO9tcc2DYBnGICjC7fEgI3NovYNU5aUvoXD4pYRDefZkBLo2JIgLnbFY%2Fc0Qs0gfNuHdZS38ADvIgVisvBb62cZQ3VNecmSxakedQzPjWhdPVEoA6WZUNeer7GqaHOD%2F3CIKb2h2MLjq3b8GOp0BPkQCEfC%2FvCFKLit5fp9ewYYbvIuhbP7DKfJVt6ZBwqwT5MdFMoIPk6Da%2BORt%2BTuV6IpyGRmPRtMSjUILafjj7wSVyqhksJo9uxIoMOnVkK4bxQPs4YDoVsi8rq6CkMVkByCg8F3LkrrLobakxZZ0xZ0bn%2F6Dp8isSuU7bfsmZeKZq2%2BbZ4hUW0aqlklLq12WNpKpxLHNMwniijn4dA%3D%3D&X-Amz-Signature=7c59b36f59e183e7b096bfa712955417186e0fde9ed8d2fb987d0db34cd6f626
p37
sg28
Vtk-shotgun-launchvredreview_v1.2.1.zip
p38
sg30
Vapplication/zip
p39
sg31
Vupload
p40
sg13
VAttachment
p41
sg15
I34296
sss.