(dp0
Vsg_bundle_data
p1
(dp2
Vtype
p3
VCustomNonProjectEntity03
p4
sVid
p5
I122
sVsg_system_name
p6
Vtk-alias
p7
sVsg_status_list
p8
Vdepl
p9
sVsg_deprecation_message
p10
NssVsg_version_data
p11
(dp12
Vtype
p13
VCustomNonProjectEntity04
p14
sVid
p15
I6131
sVcode
p16
Vv4.1.6
p17
sVsg_status_list
p18
Vprod
p19
sVdescription
p20
V* Removed Python 2 code.
p21
sVtags
p22
(lp23
sVsg_detailed_release_notes
p24
(dp25
Vurl
p26
Vhttps://community.shotgridsoftware.com/t/a-new-version-of-tk-alias-has-been-released/14116/28
p27
sVname
p28
Vv4.1.6
p29
sVcontent_type
p30
NsVlink_type
p31
Vweb
p32
sg13
VAttachment
p33
sg15
I35085
ssVsg_documentation
p34
(dp35
g26
Vhttps://developer.shotgridsoftware.com/360007496974
p36
sg28
VDocumentation
p37
sg30
Nsg31
Vweb
p38
sg13
VAttachment
p39
sg15
I34971
ssVsg_payload
p40
(dp41
g26
Vhttps://s3-proxy.shotgunstudio.com/d18c13bf0e59a9a82f18be518a1b6b508bcbd774/23a90558156d452fea9317882730032cd716d555/tk-alias_v4.1.6.zip?response-content-disposition=filename%3D%22tk-alias_v4.1.6.zip%22&x-amz-meta-user-id=42&x-amz-meta-user-type=ApiUser&X-Amz-Algorithm=AWS4-HMAC-SHA256&X-Amz-Credential=ASIAYJG6Z4JIRT3O5PS5%2F20250410%2Fus-west-2%2Fs3%2Faws4_request&X-Amz-Date=20250410T080753Z&X-Amz-SignedHeaders=host&X-Amz-Expires=900&X-Amz-Security-Token=IQoJb3JpZ2luX2VjECgaCXVzLWVhc3QtMSJHMEUCIQDuWLivXgqCb7m%2BBS0vgt0jI4OfAMycpIqjVRg%2BXwkdlwIgWkpKZuSC1nnfh6AOEGD0tGh5jFgPKH%2FnQH25qHQGE%2FEqoQIIof%2F%2F%2F%2F%2F%2F%2F%2F%2F%2FARAAGgw1Njk1NTA0MzA4MDEiDAmaqlXOfJwQ8m2LVir1AQVwM2vF6tHOp6XXLuei0InMENUTHFROfakEncgcrfVAYlg9I59q3nS78u6mU5Ex2GrNJlYL2TrSIpf4dRoKdjLhTeV3IkiVbRfPTA2xbstV%2B1Lj%2B83yBA3yC6xtVxBSj9CKD8n4jkLWaRSeQxIdbcC00zFbvvi0TkmNlKQzSjCMue9CMzxJGKEPfbMuSAZA3AGWs%2FPNKxEHCyhbxvIUKFK5PNq2hGG0AqKsvf5GSoIVpabwkaSqSdlF4r1%2B%2FV0ObpQYymvadNHFDs%2BU7KMD1FO1nJazScf4stiX3ga0%2FIXxIarZKAtnyU6nsXhdp1oLLPWskkCLMJ7q3b8GOp0BAzIXWYXT%2F4hMrK9RrT%2Bwt8L07AyfLZ4UsNMYw5yMf2vp2I3Kd1uvC1h%2FyNLsXoJjDkZMW7O9DbqYP0841slFgq2v6pfIC%2F7sHz9zJmgLkHcYXc563qHu%2BSHbOfYhkFY7z420l2YziCigYG4GRqR7hqVFdiOkCf2ESkz%2Fvfr4d1hVvdQN1oxJMzcdkvcSxXAs6WcbcgpughUfu%2B3BHQ%3D%3D&X-Amz-Signature=7139fae88f98b5f62e2ef38ab8932b4584e619e90f4a47ba396e3e5005374f3f
p42
sg28
Vtk-alias_v4.1.6.zip
p43
sg30
Vapplication/zip
p44
sg31
Vupload
p45
sg13
VAttachment
p46
sg15
I34972
sss.