(dp0
Vsg_bundle_data
p1
(dp2
Vtype
p3
VCustomNonProjectEntity13
p4
sVid
p5
I84
sVsg_system_name
p6
Vtk-framework-aliastranslations
p7
sVsg_status_list
p8
Vdepl
p9
sVsg_deprecation_message
p10
NssVsg_version_data
p11
(dp12
Vtype
p13
VCustomNonProjectEntity09
p14
sVid
p15
I4085
sVcode
p16
Vv0.3.0
p17
sVsg_status_list
p18
Vprod
p19
sVdescription
p20
VRebranding component for Flow Production Tracking
p21
sVtags
p22
(lp23
sVsg_detailed_release_notes
p24
NsVsg_documentation
p25
NsVsg_payload
p26
(dp27
Vurl
p28
Vhttps://s3-proxy.shotgunstudio.com/d18c13bf0e59a9a82f18be518a1b6b508bcbd774/3ba05fed84e1efe77e56ac51c2f10eaaaf5716c4/tk-framework-aliastranslations_v0.3.0.zip?response-content-disposition=filename%3D%22tk-framework-aliastranslations_v0.3.0.zip%22&x-amz-meta-user-id=42&x-amz-meta-user-type=ApiUser&X-Amz-Algorithm=AWS4-HMAC-SHA256&X-Amz-Credential=ASIAYJG6Z4JIYGJRCT4O%2F20250410%2Fus-west-2%2Fs3%2Faws4_request&X-Amz-Date=20250410T080543Z&X-Amz-SignedHeaders=host&X-Amz-Expires=900&X-Amz-Security-Token=IQoJb3JpZ2luX2VjECgaCXVzLWVhc3QtMSJHMEUCIQDfKuOWE1oCr3xHVhvvlJJWPppp1ntO4xFwDZG3a0CWowIgDZuITNgzGCJt8e2skBnT%2B4JLGnhrEcKZL%2BVK7N1LFjEqoQIIoP%2F%2F%2F%2F%2F%2F%2F%2F%2F%2FARAAGgw1Njk1NTA0MzA4MDEiDNXXyebaOIY4be1zayr1AV0v4YDXcgres40XddjcxDZ2D7E286WBw5G6hS3OLfm%2FCFWAGvEYYYkWGHtZBHDYyqHdaSGc5GgqA6tQtbKP3%2FTiV%2FdnkuvJqutAgfRxXP8Oo%2F7UW0NnUp5tP4OeAnRiYCUK7%2FGK8VEz8DJoaVhonxoKlO3riu4my1HseT1D0w8L8Jea1Y6RVW%2FCAiJ1IBmhvjaIh%2BD2QkmTiL%2BjewMkAqg30gf%2B7RhMOGj2HhkcMlSDT9T3fxHTnaqhfE3bu59OXNm4lOLzCmHeVZ4GwbPkU1U9A2rUzQO%2BL473K8FBjqgX4zbkrNDoKrSBC3Erz00JAI2N%2Bb6DMNLi3b8GOp0Bx06%2F%2BNS%2FKPCFiOha5uxj2DLbWVYBm2aIN%2BC9QFBcOQkdn3vmONnUGXjtuDqAQ2os8yBB5b2CltDtB7YyJsK%2FKU25jJadnQH6PKuyjoFgltS77OsCp8JlTZQo%2FzMU7Ol3UaG%2BEUJZkG%2Bs3pRp2%2FqdQLsw8EoK1nQMuVekGqoO8h6blz5gaRHIMCXZ7ZqIJr4LmpjDaQHgt7P%2B6LpGUw%3D%3D&X-Amz-Signature=d76334a05e633aef5189e223ad4d4127dd9e32b34796fa9327d8264d4a3e323d
p29
sVname
p30
Vtk-framework-aliastranslations_v0.3.0.zip
p31
sVcontent_type
p32
Vapplication/zip
p33
sVlink_type
p34
Vupload
p35
sg13
VAttachment
p36
sg15
I32340
sss.