(dp0
Vsg_bundle_data
p1
(dp2
Vtype
p3
VCustomNonProjectEntity03
p4
sVid
p5
I5
sVsg_system_name
p6
Vtk-shotgun
p7
sVsg_status_list
p8
Vdepl
p9
sVsg_deprecation_message
p10
NssVsg_version_data
p11
(dp12
Vtype
p13
VCustomNonProjectEntity04
p14
sVid
p15
I5362
sVcode
p16
Vv0.11.1
p17
sVsg_status_list
p18
Vprod
p19
sVdescription
p20
VDrop Qt4 compatibility - part 1
p21
sVtags
p22
(lp23
sVsg_detailed_release_notes
p24
(dp25
Vurl
p26
Vhttps://community.shotgridsoftware.com/t/a-new-version-of-tk-shotgun-has-been-released/14157/5
p27
sVname
p28
Vv0.11.1
p29
sVcontent_type
p30
NsVlink_type
p31
Vweb
p32
sg13
VAttachment
p33
sg15
I33708
ssVsg_documentation
p34
(dp35
g26
Vhttps://developer.shotgridsoftware.com/219032918
p36
sg28
VDocumentation
p37
sg30
Nsg31
Vweb
p38
sg13
VAttachment
p39
sg15
I33702
ssVsg_payload
p40
(dp41
g26
Vhttps://s3-proxy.shotgunstudio.com/d18c13bf0e59a9a82f18be518a1b6b508bcbd774/19e1d61bfc5c25d25bca497521a8b257fdfb72e3/tk-shotgun_v0.11.1.zip?response-content-disposition=filename%3D%22tk-shotgun_v0.11.1.zip%22&x-amz-meta-user-id=42&x-amz-meta-user-type=ApiUser&X-Amz-Algorithm=AWS4-HMAC-SHA256&X-Amz-Credential=ASIAYJG6Z4JIZZJZ6WN3%2F20250410%2Fus-west-2%2Fs3%2Faws4_request&X-Amz-Date=20250410T080812Z&X-Amz-SignedHeaders=host&X-Amz-Expires=900&X-Amz-Security-Token=IQoJb3JpZ2luX2VjECgaCXVzLWVhc3QtMSJGMEQCIGdHGuxsByO%2FAw%2FG8VwQbTin6sTjjevThk8EvUoM2sdvAiA%2FLzHnCCzrGlYB0jAVlYsjJVYgGKiDL0KSpZ5jpur7myqhAgih%2F%2F%2F%2F%2F%2F%2F%2F%2F%2F8BEAAaDDU2OTU1MDQzMDgwMSIMjocJ2bAz6XZdmfpSKvUBEeZ%2ByUCPpGPjCk75QL5ghD0pqX3EaSBv5UOi%2FfterCvQydvep1SJ89wgHFhHp6gr1NqJ3FuUeWOdrqN9zEmsmscTNVlu2lmkplpvYgpTDQYHuywpY2%2FRdSofhQUcF%2FYkkzw0GPE6mfbyoXthaczx%2FOndFGkDYgtMqkiKe7g7X9DYs%2BUYoze8mAo8T81lvgX1%2BiVfYg4BWNOB2Z2ct1PFwTOxgD7Kg%2FpyrxulRrogUG4g8vYaZWKTA7eOIpyRy1H6CE3ZsEg3hJJCySU1qzBmV8d9Lig7uDSJRiDoTWGeOHCfZusTnoJ3i6TsUolYNsze6mGMx%2BEwy%2BfdvwY6ngFnq37%2BBiXFfOf8B9F%2FV1kv40qMF5X%2B%2F2ZVPoQDi1mWGLoWfcaFbUpLfTojrWrdaCDFlpiEtDJ7KWTBRc1wii0kVS0aUnP4p48bLoKZ672XSJBGulEJi%2B4bHMbQJuTuGbVs3OFi%2BqFW%2Bz0F2EA%2B9p6mCDXC1iSzZZuedD0GSJ7cd12YyK0Nw8jps0mMyAUwkBKQanOcJx5HB%2Fhgna%2FPZQ%3D%3D&X-Amz-Signature=f990c19f568197d208b5f5e96809e4a68ec006f55d48c5a358a9f0217738e97b
p42
sg28
Vtk-shotgun_v0.11.1.zip
p43
sg30
Vapplication/zip
p44
sg31
Vupload
p45
sg13
VAttachment
p46
sg15
I33703
sss.