(dp0
Vsg_bundle_data
p1
(dp2
Vtype
p3
VCustomNonProjectEntity02
p4
sVid
p5
I231
sVsg_system_name
p6
Vtk-multi-publish2
p7
sVsg_status_list
p8
Vdepl
p9
sVsg_deprecation_message
p10
NssVsg_version_data
p11
(dp12
Vtype
p13
VCustomNonProjectEntity05
p14
sVid
p15
I7413
sVcode
p16
Vv2.10.3
p17
sVsg_status_list
p18
Vprod
p19
sVdescription
p20
V* Add UI option to turn on/off Background Publishing (when supported)
p21
sVtags
p22
(lp23
sVsg_detailed_release_notes
p24
(dp25
Vurl
p26
Vhttps://community.shotgridsoftware.com/t/a-new-version-of-tk-multi-publish2-has-been-released/14139/21
p27
sVname
p28
Vv2.10.3
p29
sVcontent_type
p30
NsVlink_type
p31
Vweb
p32
sg13
VAttachment
p33
sg15
I34898
ssVsg_documentation
p34
(dp35
g26
Vhttps://developer.shotgridsoftware.com/115000097513
p36
sg28
VDocumentation
p37
sg30
Nsg31
Vweb
p38
sg13
VAttachment
p39
sg15
I34887
ssVsg_payload
p40
(dp41
g26
Vhttps://s3-proxy.shotgunstudio.com/d18c13bf0e59a9a82f18be518a1b6b508bcbd774/cea2e4477f2900b97e62de1735618020969fdf6d/tk-multi-publish2_v2.10.3.zip?response-content-disposition=filename%3D%22tk-multi-publish2_v2.10.3.zip%22&x-amz-meta-user-id=42&x-amz-meta-user-type=ApiUser&X-Amz-Algorithm=AWS4-HMAC-SHA256&X-Amz-Credential=ASIAYJG6Z4JIZZJZ6WN3%2F20250410%2Fus-west-2%2Fs3%2Faws4_request&X-Amz-Date=20250410T080809Z&X-Amz-SignedHeaders=host&X-Amz-Expires=900&X-Amz-Security-Token=IQoJb3JpZ2luX2VjECgaCXVzLWVhc3QtMSJGMEQCIGdHGuxsByO%2FAw%2FG8VwQbTin6sTjjevThk8EvUoM2sdvAiA%2FLzHnCCzrGlYB0jAVlYsjJVYgGKiDL0KSpZ5jpur7myqhAgih%2F%2F%2F%2F%2F%2F%2F%2F%2F%2F8BEAAaDDU2OTU1MDQzMDgwMSIMjocJ2bAz6XZdmfpSKvUBEeZ%2ByUCPpGPjCk75QL5ghD0pqX3EaSBv5UOi%2FfterCvQydvep1SJ89wgHFhHp6gr1NqJ3FuUeWOdrqN9zEmsmscTNVlu2lmkplpvYgpTDQYHuywpY2%2FRdSofhQUcF%2FYkkzw0GPE6mfbyoXthaczx%2FOndFGkDYgtMqkiKe7g7X9DYs%2BUYoze8mAo8T81lvgX1%2BiVfYg4BWNOB2Z2ct1PFwTOxgD7Kg%2FpyrxulRrogUG4g8vYaZWKTA7eOIpyRy1H6CE3ZsEg3hJJCySU1qzBmV8d9Lig7uDSJRiDoTWGeOHCfZusTnoJ3i6TsUolYNsze6mGMx%2BEwy%2BfdvwY6ngFnq37%2BBiXFfOf8B9F%2FV1kv40qMF5X%2B%2F2ZVPoQDi1mWGLoWfcaFbUpLfTojrWrdaCDFlpiEtDJ7KWTBRc1wii0kVS0aUnP4p48bLoKZ672XSJBGulEJi%2B4bHMbQJuTuGbVs3OFi%2BqFW%2Bz0F2EA%2B9p6mCDXC1iSzZZuedD0GSJ7cd12YyK0Nw8jps0mMyAUwkBKQanOcJx5HB%2Fhgna%2FPZQ%3D%3D&X-Amz-Signature=2158592c28f1483fe6451f6166cc7ed46befaee0b263fb0863014cd66103035f
p42
sg28
Vtk-multi-publish2_v2.10.3.zip
p43
sg30
Vapplication/zip
p44
sg31
Vupload
p45
sg13
VAttachment
p46
sg15
I34888
sss.