(dp0
Vsg_bundle_data
p1
(dp2
Vtype
p3
VCustomNonProjectEntity13
p4
sVid
p5
I117
sVsg_system_name
p6
Vtk-framework-lmv
p7
sVsg_status_list
p8
Vdepl
p9
sVsg_deprecation_message
p10
NssVsg_version_data
p11
(dp12
Vtype
p13
VCustomNonProjectEntity09
p14
sVid
p15
I2302
sVcode
p16
Vv0.2.2
p17
sVsg_status_list
p18
Vprod
p19
sVdescription
p20
VUpdated brand icons.
p21
sVtags
p22
(lp23
sVsg_detailed_release_notes
p24
(dp25
Vurl
p26
Vhttps://community.shotgridsoftware.com/t/a-new-version-of-tk-framework-lmv-has-been-released/14121/4
p27
sVname
p28
Vv0.2.2
p29
sVcontent_type
p30
NsVlink_type
p31
Vweb
p32
sg13
VAttachment
p33
sg15
I27883
ssVsg_documentation
p34
NsVsg_payload
p35
(dp36
g26
Vhttps://s3-proxy.shotgunstudio.com/d18c13bf0e59a9a82f18be518a1b6b508bcbd774/d18e09fcd9b838956396fea30d13d48c2c71477b/tk-framework-lmv_v0.2.2.zip?response-content-disposition=filename%3D%22tk-framework-lmv_v0.2.2.zip%22&x-amz-meta-user-id=42&x-amz-meta-user-type=ApiUser&X-Amz-Algorithm=AWS4-HMAC-SHA256&X-Amz-Credential=ASIAYJG6Z4JIRT3O5PS5%2F20250410%2Fus-west-2%2Fs3%2Faws4_request&X-Amz-Date=20250410T080648Z&X-Amz-SignedHeaders=host&X-Amz-Expires=900&X-Amz-Security-Token=IQoJb3JpZ2luX2VjECgaCXVzLWVhc3QtMSJHMEUCIQDuWLivXgqCb7m%2BBS0vgt0jI4OfAMycpIqjVRg%2BXwkdlwIgWkpKZuSC1nnfh6AOEGD0tGh5jFgPKH%2FnQH25qHQGE%2FEqoQIIof%2F%2F%2F%2F%2F%2F%2F%2F%2F%2FARAAGgw1Njk1NTA0MzA4MDEiDAmaqlXOfJwQ8m2LVir1AQVwM2vF6tHOp6XXLuei0InMENUTHFROfakEncgcrfVAYlg9I59q3nS78u6mU5Ex2GrNJlYL2TrSIpf4dRoKdjLhTeV3IkiVbRfPTA2xbstV%2B1Lj%2B83yBA3yC6xtVxBSj9CKD8n4jkLWaRSeQxIdbcC00zFbvvi0TkmNlKQzSjCMue9CMzxJGKEPfbMuSAZA3AGWs%2FPNKxEHCyhbxvIUKFK5PNq2hGG0AqKsvf5GSoIVpabwkaSqSdlF4r1%2B%2FV0ObpQYymvadNHFDs%2BU7KMD1FO1nJazScf4stiX3ga0%2FIXxIarZKAtnyU6nsXhdp1oLLPWskkCLMJ7q3b8GOp0BAzIXWYXT%2F4hMrK9RrT%2Bwt8L07AyfLZ4UsNMYw5yMf2vp2I3Kd1uvC1h%2FyNLsXoJjDkZMW7O9DbqYP0841slFgq2v6pfIC%2F7sHz9zJmgLkHcYXc563qHu%2BSHbOfYhkFY7z420l2YziCigYG4GRqR7hqVFdiOkCf2ESkz%2Fvfr4d1hVvdQN1oxJMzcdkvcSxXAs6WcbcgpughUfu%2B3BHQ%3D%3D&X-Amz-Signature=b71080bc5891a3d67fb2d58c2a8817ca0adeafc0eb678795da4b80dd105a3680
p37
sg28
Vtk-framework-lmv_v0.2.2.zip
p38
sg30
Vapplication/zip
p39
sg31
Vupload
p40
sg13
VAttachment
p41
sg15
I27822
sss.