(dp0
Vsg_bundle_data
p1
(dp2
Vtype
p3
VCustomNonProjectEntity13
p4
sVid
p5
I117
sVsg_system_name
p6
Vtk-framework-lmv
p7
sVsg_status_list
p8
Vdepl
p9
sVsg_deprecation_message
p10
NssVsg_version_data
p11
(dp12
Vtype
p13
VCustomNonProjectEntity09
p14
sVid
p15
I4081
sVcode
p16
Vv1.1.0
p17
sVsg_status_list
p18
Vprod
p19
sVdescription
p20
VRebranding component for Flow Production Tracking
p21
sVtags
p22
(lp23
sVsg_detailed_release_notes
p24
NsVsg_documentation
p25
NsVsg_payload
p26
(dp27
Vurl
p28
Vhttps://s3-proxy.shotgunstudio.com/d18c13bf0e59a9a82f18be518a1b6b508bcbd774/373aa5005142bf885314f8e9ca21a7f19f200927/tk-framework-lmv_v1.1.0.zip?response-content-disposition=filename%3D%22tk-framework-lmv_v1.1.0.zip%22&x-amz-meta-user-id=42&x-amz-meta-user-type=ApiUser&X-Amz-Algorithm=AWS4-HMAC-SHA256&X-Amz-Credential=ASIAYJG6Z4JIZZJZ6WN3%2F20250410%2Fus-west-2%2Fs3%2Faws4_request&X-Amz-Date=20250410T080652Z&X-Amz-SignedHeaders=host&X-Amz-Expires=900&X-Amz-Security-Token=IQoJb3JpZ2luX2VjECgaCXVzLWVhc3QtMSJGMEQCIGdHGuxsByO%2FAw%2FG8VwQbTin6sTjjevThk8EvUoM2sdvAiA%2FLzHnCCzrGlYB0jAVlYsjJVYgGKiDL0KSpZ5jpur7myqhAgih%2F%2F%2F%2F%2F%2F%2F%2F%2F%2F8BEAAaDDU2OTU1MDQzMDgwMSIMjocJ2bAz6XZdmfpSKvUBEeZ%2ByUCPpGPjCk75QL5ghD0pqX3EaSBv5UOi%2FfterCvQydvep1SJ89wgHFhHp6gr1NqJ3FuUeWOdrqN9zEmsmscTNVlu2lmkplpvYgpTDQYHuywpY2%2FRdSofhQUcF%2FYkkzw0GPE6mfbyoXthaczx%2FOndFGkDYgtMqkiKe7g7X9DYs%2BUYoze8mAo8T81lvgX1%2BiVfYg4BWNOB2Z2ct1PFwTOxgD7Kg%2FpyrxulRrogUG4g8vYaZWKTA7eOIpyRy1H6CE3ZsEg3hJJCySU1qzBmV8d9Lig7uDSJRiDoTWGeOHCfZusTnoJ3i6TsUolYNsze6mGMx%2BEwy%2BfdvwY6ngFnq37%2BBiXFfOf8B9F%2FV1kv40qMF5X%2B%2F2ZVPoQDi1mWGLoWfcaFbUpLfTojrWrdaCDFlpiEtDJ7KWTBRc1wii0kVS0aUnP4p48bLoKZ672XSJBGulEJi%2B4bHMbQJuTuGbVs3OFi%2BqFW%2Bz0F2EA%2B9p6mCDXC1iSzZZuedD0GSJ7cd12YyK0Nw8jps0mMyAUwkBKQanOcJx5HB%2Fhgna%2FPZQ%3D%3D&X-Amz-Signature=35cc37d8498bbd895074aa019ee559225e78a245f738c68ba86c0c341209864b
p29
sVname
p30
Vtk-framework-lmv_v1.1.0.zip
p31
sVcontent_type
p32
Vapplication/zip
p33
sVlink_type
p34
Vupload
p35
sg13
VAttachment
p36
sg15
I32299
sss.