(dp0
Vsg_bundle_data
p1
(dp2
Vtype
p3
VCustomNonProjectEntity03
p4
sVid
p5
I54
sVsg_system_name
p6
Vtk-photoshopcc
p7
sVsg_status_list
p8
Vdepl
p9
sVsg_deprecation_message
p10
NssVsg_version_data
p11
(dp12
Vtype
p13
VCustomNonProjectEntity04
p14
sVid
p15
I6122
sVcode
p16
Vv1.11.6
p17
sVsg_status_list
p18
Vprod
p19
sVdescription
p20
VRemoved Python 2 code.
p21
sVtags
p22
(lp23
sVsg_detailed_release_notes
p24
(dp25
Vurl
p26
Vhttps://community.shotgridsoftware.com/t/a-new-version-of-tk-photoshopcc-has-been-released/14154/13
p27
sVname
p28
Vv1.11.6
p29
sVcontent_type
p30
NsVlink_type
p31
Vweb
p32
sg13
VAttachment
p33
sg15
I35084
ssVsg_documentation
p34
(dp35
g26
Vhttps://developer.shotgridsoftware.com/115000026653
p36
sg28
VDocumentation
p37
sg30
Nsg31
Vweb
p38
sg13
VAttachment
p39
sg15
I34944
ssVsg_payload
p40
(dp41
g26
Vhttps://s3-proxy.shotgunstudio.com/d18c13bf0e59a9a82f18be518a1b6b508bcbd774/bc4cc98b2c4a4e3439d1e6f719e042d34f2f41c3/tk-photoshopcc_v1.11.6.zip?response-content-disposition=filename%3D%22tk-photoshopcc_v1.11.6.zip%22&x-amz-meta-user-id=42&x-amz-meta-user-type=ApiUser&X-Amz-Algorithm=AWS4-HMAC-SHA256&X-Amz-Credential=ASIAYJG6Z4JI4DHOLABN%2F20250410%2Fus-west-2%2Fs3%2Faws4_request&X-Amz-Date=20250410T080745Z&X-Amz-SignedHeaders=host&X-Amz-Expires=900&X-Amz-Security-Token=IQoJb3JpZ2luX2VjECgaCXVzLWVhc3QtMSJIMEYCIQCabfFtzkn6GCeehc3Y9oB6fDcxazta8MG3ZXvVLhqlKQIhAMHnTG%2FiDxnL%2BXWWIJ%2BuA3XeR2Y33qXxOR7tbVYQr4%2BgKqECCKD%2F%2F%2F%2F%2F%2F%2F%2F%2F%2FwEQABoMNTY5NTUwNDMwODAxIgwMmG80ekjmjMBe6G8q9QE4bHfByh8ZViDFtTxlejoRP785NUL2gerKt2jaAOKxzUWwjg%2B%2FCwchzkickCcCHQP%2FXrwXzqIpIPlqBuBvkXxjujbsj3o%2FWahhmJAyzBB0Q5JLeeemEjOMrx0yyzcdTfK%2Bz86R%2BA8VKXAgjblSiAaQh2QeXiGbbe8qVdk%2BRjeuiIKZvLq8LIipbdQNMg3atbjDdHCqGTdLszoIjqg7ZCiHv%2F6JNEYsVc1FbUsY4HoSOYPOVzZjvm7617LoJMkfP1S47XZfadeKCb8Gl4WUQjy8cgG3ujcpuIAZ%2BS2R3fd2DaeVYsjFi5HBOGI1EoDY4K3sRLcaZDD34t2%2FBjqcATANbuf%2FwRn9SlORdkXVB6pjQazrb24TPlsGtE1BOwaAUAwE6UibDEXqThzhjF3u1BOKfDFKeP8JBZ65X8pyc7WlvC3UQMnUBg%2FDxY33rIfVr7ZDyVFPR8j4S3ui5woSeyqgjrwlwULUMl%2B%2B4Ks5%2FqhpEVGVyS4%2FR6V2dEIZMz%2B3nQgfE5u0sEvSDJ0O7ewZl%2BxkHwEnUYD4m%2BXVqw%3D%3D&X-Amz-Signature=cc21f5aa29fae7302b283fbaa19fc271c4b8b4754d877c480b0fdc06f40ab1b6
p42
sg28
Vtk-photoshopcc_v1.11.6.zip
p43
sg30
Vapplication/zip
p44
sg31
Vupload
p45
sg13
VAttachment
p46
sg15
I34945
sss.