(dp0
Vsg_bundle_data
p1
(dp2
Vtype
p3
VCustomNonProjectEntity02
p4
sVid
p5
I302
sVsg_system_name
p6
Vtk-multi-breakdown2
p7
sVsg_status_list
p8
Vdepl
p9
sVsg_deprecation_message
p10
NssVsg_version_data
p11
(dp12
Vtype
p13
VCustomNonProjectEntity05
p14
sVid
p15
I7354
sVcode
p16
Vv0.4.3
p17
sVsg_status_list
p18
Vprod
p19
sVdescription
p20
V* Removed Python 2 code.
p21
sVtags
p22
(lp23
sVsg_detailed_release_notes
p24
(dp25
Vurl
p26
Vhttps://community.shotgridsoftware.com/t/a-new-version-of-tk-multi-breakdown2-has-been-released/15299/13
p27
sVname
p28
Vv0.4.3
p29
sVcontent_type
p30
NsVlink_type
p31
Vweb
p32
sg13
VAttachment
p33
sg15
I34652
ssVsg_documentation
p34
NsVsg_payload
p35
(dp36
g26
Vhttps://s3-proxy.shotgunstudio.com/d18c13bf0e59a9a82f18be518a1b6b508bcbd774/862e60ac232ce8bb4f7a9654b4bd5764fe73f631/tk-multi-breakdown2_v0.4.3.zip?response-content-disposition=filename%3D%22tk-multi-breakdown2_v0.4.3.zip%22&x-amz-meta-user-id=42&x-amz-meta-user-type=ApiUser&X-Amz-Algorithm=AWS4-HMAC-SHA256&X-Amz-Credential=ASIAYJG6Z4JIQL4KXEXZ%2F20250410%2Fus-west-2%2Fs3%2Faws4_request&X-Amz-Date=20250410T080841Z&X-Amz-SignedHeaders=host&X-Amz-Expires=900&X-Amz-Security-Token=IQoJb3JpZ2luX2VjECgaCXVzLWVhc3QtMSJGMEQCIFpTG1EMMMCktz1OhucwHuJ0DpG84Gds6bWa7dyu6cocAiBsalZorXK7R1ioKxcB5Px53OaAwqpW6Dg0qkdao63GYyqhAgih%2F%2F%2F%2F%2F%2F%2F%2F%2F%2F8BEAAaDDU2OTU1MDQzMDgwMSIMbntRVuI2uwLkLRMUKvUBHOIwST3ywW5VAX2EDcq%2BuyX8Q5YJAMHlpPvMNP2KkmY7LHuybtjVU2QN63Ll%2BCjIBG8ob8YKwQPk%2FrvvccX1wqgfn9pRFX%2Byoa3wciHEhwa7kELMQ9VBFnLG1QYlwYab3QnZZsFV2Ci2bAK1qceKfYe4JNue823%2FIXMs0D6Xffdal5WnsCYa4xy3Qxiuchrs4KpPWwEA%2FVlW2h4PiLiOLOAXC%2B7jOQVfj%2B91rvW%2BXHU4pTbwPqOVZD4Bxzzyn62nDh49dzf262oawXKV4HQUVBS89RSUla%2Fep2vV9X8DtxP1UrJAYlaCQioy2WjvQgFyJ2Ox8vYwjefdvwY6ngHJ6MdQAXpQIVgIgX2u5a4GAQcneDgQbjFyL7pmRgJsk7gxG1ERUgYpPoaASrAIUlFSxutiUwi0Jv46wuIqVCX0lpKGidVMxhgrXXKTU7PfGaCnRccYMOrpVQZK%2BYik6mdQp30kWJTwVcPW2%2FBlDyZ15HeuOvOdPHTRr757ds%2FEDxdPHwqt6lcmz0hKpY4Ewr0ascSN%2F2Ravo0WTvUljQ%3D%3D&X-Amz-Signature=c9f35b846e197aa472b95fc17d2aadc923b25a6ee36f07c583fce7aaed2ff2be
p37
sg28
Vtk-multi-breakdown2_v0.4.3.zip
p38
sg30
Vapplication/zip
p39
sg31
Vupload
p40
sg13
VAttachment
p41
sg15
I34651
sss.